target datalayout = "e-m:e-p270:32:32-p271:32:32-p272:64:64-i64:64-i128:128-f80:128-n8:16:32:64-S128"
target triple = "x86_64-pc-linux-gnu"

%"class.arrow::Status" = type { ptr }
%"class.arrow::Result.179" = type { %"class.arrow::Status", %"class.arrow::internal::AlignedStorage.182" }
%"class.arrow::internal::AlignedStorage.182" = type { [16 x i8] }

; Function Attrs: mustprogress nounwind uwtable
define internal void @"_ZN5arrow6FutureISt10shared_ptrINS_6BufferEEE17PassthruOnFailureIZNS_3ipc16ReadMessageAsyncElilPNS_2io16RandomAccessFileERKNS7_9IOContextEE3$_0EclERKNS_6StatusE"(ptr dead_on_unwind noalias writable sret(%"class.arrow::Result.179") align 8 %0, ptr noundef nonnull align 1 dereferenceable(1) %1, ptr noundef nonnull align 8 dereferenceable(8) %2) #1 align 2 {
  %4 = alloca ptr, align 8
  %5 = alloca ptr, align 8
  %6 = alloca ptr, align 8
  store ptr %0, ptr %4, align 8
  store ptr %1, ptr %5, align 8, !tbaa !889
  store ptr %2, ptr %6, align 8, !tbaa !29
  %7 = load ptr, ptr %6, align 8, !tbaa !29
  call void @_ZN5arrow6ResultISt10shared_ptrINS_3ipc7MessageEEEC2ERKNS_6StatusE(ptr noundef nonnull align 8 dereferenceable(24) %0, ptr noundef nonnull align 8 dereferenceable(8) %7) #21
  ret void
}

; Function Attrs: mustprogress uwtable
define internal void @"_ZNK5arrow6detail14ContinueFutureclINS_6FutureISt10shared_ptrINS_6BufferEEE17PassthruOnFailureIZNS_3ipc16ReadMessageAsyncElilPNS_2io16RandomAccessFileERKNSA_9IOContextEE3$_0EEJRKNS_6StatusEENS_6ResultIS4_INS9_7MessageEEEENS3_ISN_EEEENSt9enable_ifIXaaaantsr3std7is_voidIT1_EE5valuentsr9is_futureISR_EE5valueoontsrT2_8is_emptysr3std7is_sameISR_SI_EE5valueEvE4typeESS_OT_DpOT0_"(ptr noundef nonnull align 1 dereferenceable(1) %0, ptr noundef %1, ptr noundef nonnull align 1 dereferenceable(1) %2, ptr noundef nonnull align 8 dereferenceable(8) %3) #0 align 2 personality ptr @__gxx_personality_v0 {
  %5 = alloca ptr, align 8
  %6 = alloca ptr, align 8
  %7 = alloca ptr, align 8
  %8 = alloca ptr, align 8
  %9 = alloca %"class.arrow::Result.179", align 8
  %10 = alloca ptr, align 8
  %11 = alloca i32, align 4
  store ptr %0, ptr %5, align 8, !tbaa !887
  store ptr %1, ptr %6, align 8, !tbaa !203
  store ptr %2, ptr %7, align 8, !tbaa !889
  store ptr %3, ptr %8, align 8, !tbaa !29
  %12 = load ptr, ptr %7, align 8, !tbaa !889
  %13 = load ptr, ptr %8, align 8, !tbaa !29
  call void @"_ZN5arrow6FutureISt10shared_ptrINS_6BufferEEE17PassthruOnFailureIZNS_3ipc16ReadMessageAsyncElilPNS_2io16RandomAccessFileERKNS7_9IOContextEE3$_0EclERKNS_6StatusE"(ptr dead_on_unwind writable sret(%"class.arrow::Result.179") align 8 %9, ptr noundef nonnull align 1 dereferenceable(1) %12, ptr noundef nonnull align 8 dereferenceable(8) %13)
  invoke void @_ZN5arrow6FutureISt10shared_ptrINS_3ipc7MessageEEE12MarkFinishedENS_6ResultIS4_EE(ptr noundef nonnull align 8 dereferenceable(16) %1, ptr noundef %9)
          to label %14 unwind label %15

14:                                               ; preds = %4
  call void @_ZN5arrow6ResultISt10shared_ptrINS_3ipc7MessageEEED2Ev(ptr noundef nonnull align 8 dereferenceable(24) %9) #21
  ret void

15:                                               ; preds = %4
  %16 = landingpad { ptr, i32 }
          cleanup
  %17 = extractvalue { ptr, i32 } %16, 0
  store ptr %17, ptr %10, align 8
  %18 = extractvalue { ptr, i32 } %16, 1
  store i32 %18, ptr %11, align 4
  call void @_ZN5arrow6ResultISt10shared_ptrINS_3ipc7MessageEEED2Ev(ptr noundef nonnull align 8 dereferenceable(24) %9) #21
  br label %19

19:                                               ; preds = %15
  %20 = load ptr, ptr %10, align 8
  %21 = load i32, ptr %11, align 4
  %22 = insertvalue { ptr, i32 } poison, ptr %20, 0
  %23 = insertvalue { ptr, i32 } %22, i32 %21, 1
  resume { ptr, i32 } %23
}