; Function Attrs: mustprogress uwtable
define internal fastcc void @"_ZNK5arrow6detail14ContinueFutureclINS_6FutureISt10shared_ptrINS_6BufferEEE17PassthruOnFailureIZNS_3ipc16ReadMessageAsyncElilPNS_2io16RandomAccessFileERKNSA_9IOContextEE3$_0EEJRKNS_6StatusEENS_6ResultIS4_INS9_7MessageEEEENS3_ISN_EEEENSt9enable_ifIXaaaantsr3std7is_voidIT1_EE5valuentsr9is_futureISR_EE5valueoontsrT2_8is_emptysr3std7is_sameISR_SI_EE5valueEvE4typeESS_OT_DpOT0_"(ptr noundef nonnull %0, ptr noundef nonnull align 8 dereferenceable(8) %1) unnamed_addr #0 align 2 personality ptr @__gxx_personality_v0 {
  %3 = alloca %"class.arrow::Result.179", align 8
  call void @_ZN5arrow6ResultISt10shared_ptrINS_3ipc7MessageEEEC2ERKNS_6StatusE(ptr noundef nonnull align 8 dereferenceable(24) %3, ptr noundef nonnull align 8 dereferenceable(8) %1) #29
  invoke void @_ZN5arrow6FutureISt10shared_ptrINS_3ipc7MessageEEE12MarkFinishedENS_6ResultIS4_EE(ptr noundef nonnull align 8 dereferenceable(16) %0, ptr noundef nonnull %3)
          to label %4 unwind label %36

4:                                                ; preds = %2
  %5 = load ptr, ptr %3, align 8, !tbaa !28
  %6 = icmp eq ptr %5, null
  br i1 %6, label %7, label %_ZN5arrow6ResultISt10shared_ptrINS_3ipc7MessageEEE7DestroyEv.exit.thread.i, !prof !31

7:                                                ; preds = %4
  %8 = getelementptr inbounds nuw i8, ptr %3, i64 16
  %9 = load ptr, ptr %8, align 8, !tbaa !14
  %.not.i.i.i.i.i = icmp eq ptr %9, null
  br i1 %.not.i.i.i.i.i, label %_ZN5arrow6ResultISt10shared_ptrINS_3ipc7MessageEEE7DestroyEv.exit.i, label %10

10:                                               ; preds = %7
  %11 = getelementptr inbounds nuw i8, ptr %9, i64 8
  %12 = load atomic i64, ptr %11 acquire, align 8
  %13 = icmp eq i64 %12, 4294967297
  %14 = trunc i64 %12 to i32
  br i1 %13, label %15, label %23

15:                                               ; preds = %10
  store i32 0, ptr %11, align 8, !tbaa !16
  %16 = getelementptr inbounds nuw i8, ptr %9, i64 12
  store i32 0, ptr %16, align 4, !tbaa !19
  %17 = load ptr, ptr %9, align 8, !tbaa !20
  %18 = getelementptr inbounds nuw i8, ptr %17, i64 16
  %19 = load ptr, ptr %18, align 8
  call void %19(ptr noundef nonnull align 8 dereferenceable(16) %9) #29
  %20 = load ptr, ptr %9, align 8, !tbaa !20
  %21 = getelementptr inbounds nuw i8, ptr %20, i64 24
  %22 = load ptr, ptr %21, align 8
  call void %22(ptr noundef nonnull align 8 dereferenceable(16) %9) #29
  br label %_ZN5arrow6ResultISt10shared_ptrINS_3ipc7MessageEEE7DestroyEv.exit.i

23:                                               ; preds = %10
  %24 = load i8, ptr @__libc_single_threaded, align 1, !tbaa !22
  %.not.i.i.i.i.i.i = icmp eq i8 %24, 0
  br i1 %.not.i.i.i.i.i.i, label %27, label %25

25:                                               ; preds = %23
  %26 = add nsw i32 %14, -1
  store i32 %26, ptr %11, align 4, !tbaa !23
  br label %_ZN9__gnu_cxx27__exchange_and_add_dispatchEPii.exit.i.i.i.i.i.i

27:                                               ; preds = %23
  %28 = atomicrmw volatile add ptr %11, i32 -1 acq_rel, align 4
  br label %_ZN9__gnu_cxx27__exchange_and_add_dispatchEPii.exit.i.i.i.i.i.i

_ZN9__gnu_cxx27__exchange_and_add_dispatchEPii.exit.i.i.i.i.i.i: ; preds = %27, %25
  %.0.i.i.i.i.i.i.i = phi i32 [ %14, %25 ], [ %28, %27 ]
  %29 = icmp eq i32 %.0.i.i.i.i.i.i.i, 1
  br i1 %29, label %30, label %_ZN5arrow6ResultISt10shared_ptrINS_3ipc7MessageEEE7DestroyEv.exit.i, !prof !24

30:                                               ; preds = %_ZN9__gnu_cxx27__exchange_and_add_dispatchEPii.exit.i.i.i.i.i.i
  call void @_ZNSt16_Sp_counted_baseILN9__gnu_cxx12_Lock_policyE2EE24_M_release_last_use_coldEv(ptr noundef nonnull align 8 dereferenceable(16) %9) #29
  br label %_ZN5arrow6ResultISt10shared_ptrINS_3ipc7MessageEEE7DestroyEv.exit.i

_ZN5arrow6ResultISt10shared_ptrINS_3ipc7MessageEEE7DestroyEv.exit.i: ; preds = %30, %_ZN9__gnu_cxx27__exchange_and_add_dispatchEPii.exit.i.i.i.i.i.i, %15, %7
  %.pr.i = load ptr, ptr %3, align 8, !tbaa !28
  %.not.i.i = icmp eq ptr %.pr.i, null
  br i1 %.not.i.i, label %_ZN5arrow6ResultISt10shared_ptrINS_3ipc7MessageEEED2Ev.exit, label %_ZN5arrow6ResultISt10shared_ptrINS_3ipc7MessageEEE7DestroyEv.exit.thread.i, !prof !142

_ZN5arrow6ResultISt10shared_ptrINS_3ipc7MessageEEE7DestroyEv.exit.thread.i: ; preds = %_ZN5arrow6ResultISt10shared_ptrINS_3ipc7MessageEEE7DestroyEv.exit.i, %4
  %31 = phi ptr [ %.pr.i, %_ZN5arrow6ResultISt10shared_ptrINS_3ipc7MessageEEE7DestroyEv.exit.i ], [ %5, %4 ]
  %32 = getelementptr inbounds nuw i8, ptr %31, i64 1
  %33 = load i8, ptr %32, align 1, !tbaa !32, !range !43, !noundef !44
  %34 = trunc nuw i8 %33 to i1
  br i1 %34, label %_ZN5arrow6ResultISt10shared_ptrINS_3ipc7MessageEEED2Ev.exit, label %35

35:                                               ; preds = %_ZN5arrow6ResultISt10shared_ptrINS_3ipc7MessageEEE7DestroyEv.exit.thread.i
  call void @_ZN5arrow6Status11DeleteStateEv(ptr noundef nonnull align 8 dereferenceable(24) %3) #29
  br label %_ZN5arrow6ResultISt10shared_ptrINS_3ipc7MessageEEED2Ev.exit

_ZN5arrow6ResultISt10shared_ptrINS_3ipc7MessageEEED2Ev.exit: ; preds = %_ZN5arrow6ResultISt10shared_ptrINS_3ipc7MessageEEE7DestroyEv.exit.i, %_ZN5arrow6ResultISt10shared_ptrINS_3ipc7MessageEEE7DestroyEv.exit.thread.i, %35
  ret void

36:                                               ; preds = %2
  %37 = landingpad { ptr, i32 }
          cleanup
  call void @_ZN5arrow6ResultISt10shared_ptrINS_3ipc7MessageEEED2Ev(ptr noundef nonnull align 8 dereferenceable(24) %3) #29
  resume { ptr, i32 } %37
}